target datalayout = "e-m:e-p270:32:32-p271:32:32-p272:64:64-i64:64-i128:128-f80:128-n8:16:32:64-S128"
target triple = "x86_64-pc-linux-gnu"

%struct._wmem_strbuf_t = type { ptr, ptr, i64, i64 }

@hex = internal constant [16 x i8] c"0123456789ABCDEF", align 16

; Function Attrs: inlinehint null_pointer_is_valid sspstrong uwtable
define internal void @wmem_strbuf_grow(ptr noundef %0, i64 noundef %1) #5 {
  %3 = alloca ptr, align 8
  %4 = alloca i64, align 8
  %5 = alloca i64, align 8
  %6 = alloca i64, align 8
  %7 = alloca i32, align 4
  store ptr %0, ptr %3, align 8
  store i64 %1, ptr %4, align 8
  call void @llvm.lifetime.start.p0(i64 8, ptr %5) #15
  call void @llvm.lifetime.start.p0(i64 8, ptr %6) #15
  %8 = load ptr, ptr %3, align 8
  %9 = getelementptr inbounds nuw %struct._wmem_strbuf_t, ptr %8, i32 0, i32 3
  %10 = load i64, ptr %9, align 8
  %11 = load ptr, ptr %3, align 8
  %12 = getelementptr inbounds nuw %struct._wmem_strbuf_t, ptr %11, i32 0, i32 2
  %13 = load i64, ptr %12, align 8
  %14 = sub i64 %10, %13
  %15 = sub i64 %14, 1
  %16 = load i64, ptr %4, align 8
  %17 = icmp uge i64 %15, %16
  br i1 %17, label %18, label %19

18:                                               ; preds = %2
  store i32 1, ptr %7, align 4
  br label %57

19:                                               ; preds = %2
  %20 = load ptr, ptr %3, align 8
  %21 = getelementptr inbounds nuw %struct._wmem_strbuf_t, ptr %20, i32 0, i32 3
  %22 = load i64, ptr %21, align 8
  store i64 %22, ptr %5, align 8
  %23 = load ptr, ptr %3, align 8
  %24 = getelementptr inbounds nuw %struct._wmem_strbuf_t, ptr %23, i32 0, i32 2
  %25 = load i64, ptr %24, align 8
  %26 = load i64, ptr %4, align 8
  %27 = add i64 %25, %26
  store i64 %27, ptr %6, align 8
  br label %28

28:                                               ; preds = %33, %19
  %29 = load i64, ptr %5, align 8
  %30 = load i64, ptr %6, align 8
  %31 = add i64 %30, 1
  %32 = icmp ult i64 %29, %31
  br i1 %32, label %33, label %36

33:                                               ; preds = %28
  %34 = load i64, ptr %5, align 8
  %35 = mul i64 %34, 2
  store i64 %35, ptr %5, align 8
  br label %28, !llvm.loop !8

36:                                               ; preds = %28
  %37 = load i64, ptr %5, align 8
  %38 = load ptr, ptr %3, align 8
  %39 = getelementptr inbounds nuw %struct._wmem_strbuf_t, ptr %38, i32 0, i32 3
  %40 = load i64, ptr %39, align 8
  %41 = icmp eq i64 %37, %40
  br i1 %41, label %42, label %43

42:                                               ; preds = %36
  store i32 1, ptr %7, align 4
  br label %57

43:                                               ; preds = %36
  %44 = load ptr, ptr %3, align 8
  %45 = getelementptr inbounds nuw %struct._wmem_strbuf_t, ptr %44, i32 0, i32 0
  %46 = load ptr, ptr %45, align 8
  %47 = load ptr, ptr %3, align 8
  %48 = getelementptr inbounds nuw %struct._wmem_strbuf_t, ptr %47, i32 0, i32 1
  %49 = load ptr, ptr %48, align 8
  %50 = load i64, ptr %5, align 8
  %51 = call ptr @wmem_realloc(ptr noundef %46, ptr noundef %49, i64 noundef %50) #18
  %52 = load ptr, ptr %3, align 8
  %53 = getelementptr inbounds nuw %struct._wmem_strbuf_t, ptr %52, i32 0, i32 1
  store ptr %51, ptr %53, align 8
  %54 = load i64, ptr %5, align 8
  %55 = load ptr, ptr %3, align 8
  %56 = getelementptr inbounds nuw %struct._wmem_strbuf_t, ptr %55, i32 0, i32 3
  store i64 %54, ptr %56, align 8
  store i32 0, ptr %7, align 4
  br label %57

57:                                               ; preds = %43, %42, %18
  call void @llvm.lifetime.end.p0(i64 8, ptr %6) #15
  call void @llvm.lifetime.end.p0(i64 8, ptr %5) #15
  %58 = load i32, ptr %7, align 4
  switch i32 %58, label %60 [
    i32 0, label %59
    i32 1, label %59
  ]

59:                                               ; preds = %57, %57
  ret void

60:                                               ; preds = %57
  unreachable
}

; Function Attrs: null_pointer_is_valid sspstrong uwtable
define void @wmem_strbuf_append_hex(ptr noundef %0, i8 noundef zeroext %1) #0 {
  %3 = alloca ptr, align 8
  %4 = alloca i8, align 1
  store ptr %0, ptr %3, align 8
  store i8 %1, ptr %4, align 1
  %5 = load ptr, ptr %3, align 8
  call void @wmem_strbuf_grow(ptr noundef %5, i64 noundef 4)
  %6 = load ptr, ptr %3, align 8
  %7 = getelementptr inbounds nuw %struct._wmem_strbuf_t, ptr %6, i32 0, i32 1
  %8 = load ptr, ptr %7, align 8
  %9 = load ptr, ptr %3, align 8
  %10 = getelementptr inbounds nuw %struct._wmem_strbuf_t, ptr %9, i32 0, i32 2
  %11 = load i64, ptr %10, align 8
  %12 = add i64 %11, 1
  store i64 %12, ptr %10, align 8
  %13 = getelementptr i8, ptr %8, i64 %11
  store i8 92, ptr %13, align 1
  %14 = load ptr, ptr %3, align 8
  %15 = getelementptr inbounds nuw %struct._wmem_strbuf_t, ptr %14, i32 0, i32 1
  %16 = load ptr, ptr %15, align 8
  %17 = load ptr, ptr %3, align 8
  %18 = getelementptr inbounds nuw %struct._wmem_strbuf_t, ptr %17, i32 0, i32 2
  %19 = load i64, ptr %18, align 8
  %20 = add i64 %19, 1
  store i64 %20, ptr %18, align 8
  %21 = getelementptr i8, ptr %16, i64 %19
  store i8 120, ptr %21, align 1
  %22 = load i8, ptr %4, align 1
  %23 = zext i8 %22 to i32
  %24 = ashr i32 %23, 4
  %25 = and i32 %24, 15
  %26 = sext i32 %25 to i64
  %27 = getelementptr [16 x i8], ptr @hex, i64 0, i64 %26
  %28 = load i8, ptr %27, align 1
  %29 = load ptr, ptr %3, align 8
  %30 = getelementptr inbounds nuw %struct._wmem_strbuf_t, ptr %29, i32 0, i32 1
  %31 = load ptr, ptr %30, align 8
  %32 = load ptr, ptr %3, align 8
  %33 = getelementptr inbounds nuw %struct._wmem_strbuf_t, ptr %32, i32 0, i32 2
  %34 = load i64, ptr %33, align 8
  %35 = add i64 %34, 1
  store i64 %35, ptr %33, align 8
  %36 = getelementptr i8, ptr %31, i64 %34
  store i8 %28, ptr %36, align 1
  %37 = load i8, ptr %4, align 1
  %38 = zext i8 %37 to i32
  %39 = ashr i32 %38, 0
  %40 = and i32 %39, 15
  %41 = sext i32 %40 to i64
  %42 = getelementptr [16 x i8], ptr @hex, i64 0, i64 %41
  %43 = load i8, ptr %42, align 1
  %44 = load ptr, ptr %3, align 8
  %45 = getelementptr inbounds nuw %struct._wmem_strbuf_t, ptr %44, i32 0, i32 1
  %46 = load ptr, ptr %45, align 8
  %47 = load ptr, ptr %3, align 8
  %48 = getelementptr inbounds nuw %struct._wmem_strbuf_t, ptr %47, i32 0, i32 2
  %49 = load i64, ptr %48, align 8
  %50 = add i64 %49, 1
  store i64 %50, ptr %48, align 8
  %51 = getelementptr i8, ptr %46, i64 %49
  store i8 %43, ptr %51, align 1
  %52 = load ptr, ptr %3, align 8
  %53 = getelementptr inbounds nuw %struct._wmem_strbuf_t, ptr %52, i32 0, i32 1
  %54 = load ptr, ptr %53, align 8
  %55 = load ptr, ptr %3, align 8
  %56 = getelementptr inbounds nuw %struct._wmem_strbuf_t, ptr %55, i32 0, i32 2
  %57 = load i64, ptr %56, align 8
  %58 = getelementptr i8, ptr %54, i64 %57
  store i8 0, ptr %58, align 1
  ret void
}