; Function Attrs: null_pointer_is_valid sspstrong uwtable
define void @wmem_strbuf_append_hex(ptr noundef captures(none) %0, i8 noundef zeroext %1) local_unnamed_addr #0 {
  %3 = getelementptr inbounds nuw i8, ptr %0, i64 24
  %4 = load i64, ptr %3, align 8
  %5 = getelementptr inbounds nuw i8, ptr %0, i64 16
  %6 = load i64, ptr %5, align 8
  %7 = sub i64 %6, %4
  %.not.i = icmp ugt i64 %7, -5
  br i1 %.not.i, label %8, label %wmem_strbuf_grow.exit

8:                                                ; preds = %2
  %9 = add i64 %6, 5
  br label %10

10:                                               ; preds = %10, %8
  %.0.i = phi i64 [ %4, %8 ], [ %12, %10 ]
  %11 = icmp ult i64 %.0.i, %9
  %12 = shl i64 %.0.i, 1
  br i1 %11, label %10, label %13, !llvm.loop !20

13:                                               ; preds = %10
  %14 = icmp eq i64 %.0.i, %4
  br i1 %14, label %wmem_strbuf_grow.exit, label %15

15:                                               ; preds = %13
  %16 = load ptr, ptr %0, align 8
  %17 = getelementptr inbounds nuw i8, ptr %0, i64 8
  %18 = load ptr, ptr %17, align 8
  %19 = tail call ptr @wmem_realloc(ptr noundef %16, ptr noundef %18, i64 noundef %.0.i) #19
  store ptr %19, ptr %17, align 8
  store i64 %.0.i, ptr %3, align 8
  %.pre = load i64, ptr %5, align 8
  br label %wmem_strbuf_grow.exit

wmem_strbuf_grow.exit:                            ; preds = %2, %13, %15
  %20 = phi i64 [ %6, %2 ], [ %6, %13 ], [ %.pre, %15 ]
  %21 = getelementptr inbounds nuw i8, ptr %0, i64 8
  %22 = load ptr, ptr %21, align 8
  %23 = add i64 %20, 1
  store i64 %23, ptr %5, align 8
  %24 = getelementptr i8, ptr %22, i64 %20
  store i8 92, ptr %24, align 1
  %25 = load ptr, ptr %21, align 8
  %26 = load i64, ptr %5, align 8
  %27 = add i64 %26, 1
  store i64 %27, ptr %5, align 8
  %28 = getelementptr i8, ptr %25, i64 %26
  store i8 120, ptr %28, align 1
  %29 = zext i8 %1 to i32
  %30 = lshr i32 %29, 4
  %31 = zext nneg i32 %30 to i64
  %32 = getelementptr [16 x i8], ptr @hex, i64 0, i64 %31
  %33 = load i8, ptr %32, align 1
  %34 = load ptr, ptr %21, align 8
  %35 = load i64, ptr %5, align 8
  %36 = add i64 %35, 1
  store i64 %36, ptr %5, align 8
  %37 = getelementptr i8, ptr %34, i64 %35
  store i8 %33, ptr %37, align 1
  %38 = and i32 %29, 15
  %39 = zext nneg i32 %38 to i64
  %40 = getelementptr [16 x i8], ptr @hex, i64 0, i64 %39
  %41 = load i8, ptr %40, align 1
  %42 = load ptr, ptr %21, align 8
  %43 = load i64, ptr %5, align 8
  %44 = add i64 %43, 1
  store i64 %44, ptr %5, align 8
  %45 = getelementptr i8, ptr %42, i64 %43
  store i8 %41, ptr %45, align 1
  %46 = load ptr, ptr %21, align 8
  %47 = load i64, ptr %5, align 8
  %48 = getelementptr i8, ptr %46, i64 %47
  store i8 0, ptr %48, align 1
  ret void
}